; Function Attrs: mustprogress nofree norecurse nosync nounwind willreturn memory(argmem: write) uwtable
define internal noundef i32 @H5D__bt2_idx_reset(ptr nocapture noundef writeonly %0, i1 noundef zeroext %1) #4 {
  br i1 %1, label %3, label %5

3:                                                ; preds = %2
  %4 = getelementptr inbounds i8, ptr %0, i64 8
  store i64 -1, ptr %4, align 8
  br label %5

5:                                                ; preds = %3, %2
  %6 = getelementptr inbounds i8, ptr %0, i64 32
  store ptr null, ptr %6, align 8
  ret i32 0
}